target datalayout = "e-m:e-p270:32:32-p271:32:32-p272:64:64-i64:64-i128:128-f80:128-n8:16:32:64-S128"
target triple = "x86_64-pc-linux-gnu"

%struct._lv_image_decoder_t = type { ptr, ptr, ptr, ptr, ptr, ptr, ptr }

@.str = private unnamed_addr constant [4 x i8] c"SVG\00", align 1

; Function Attrs: nounwind uwtable
define void @lv_svg_decoder_init() #0 {
  %1 = alloca ptr, align 8
  call void @llvm.lifetime.start.p0(i64 8, ptr %1) #4
  %2 = call ptr @lv_image_decoder_create()
  store ptr %2, ptr %1, align 8, !tbaa !3
  %3 = load ptr, ptr %1, align 8, !tbaa !3
  call void @lv_image_decoder_set_info_cb(ptr noundef %3, ptr noundef @svg_decoder_info)
  %4 = load ptr, ptr %1, align 8, !tbaa !3
  call void @lv_image_decoder_set_open_cb(ptr noundef %4, ptr noundef @svg_decoder_open)
  %5 = load ptr, ptr %1, align 8, !tbaa !3
  call void @lv_image_decoder_set_close_cb(ptr noundef %5, ptr noundef @svg_decoder_close)
  %6 = load ptr, ptr %1, align 8, !tbaa !3
  %7 = getelementptr inbounds nuw %struct._lv_image_decoder_t, ptr %6, i32 0, i32 5
  store ptr @.str, ptr %7, align 8, !tbaa !8
  call void @llvm.lifetime.end.p0(i64 8, ptr %1) #4
  ret void
}