; Function Attrs: nounwind uwtable
define void @lv_svg_decoder_init() local_unnamed_addr #0 {
  %1 = tail call ptr @lv_image_decoder_create() #4
  tail call void @lv_image_decoder_set_info_cb(ptr noundef %1, ptr noundef nonnull @svg_decoder_info) #4
  tail call void @lv_image_decoder_set_open_cb(ptr noundef %1, ptr noundef nonnull @svg_decoder_open) #4
  tail call void @lv_image_decoder_set_close_cb(ptr noundef %1, ptr noundef nonnull @svg_decoder_close) #4
  %2 = getelementptr inbounds nuw i8, ptr %1, i64 40
  store ptr @.str, ptr %2, align 8, !tbaa !3
  ret void
}